target datalayout = "e-m:e-p270:32:32-p271:32:32-p272:64:64-i64:64-i128:128-f80:128-n8:16:32:64-S128"
target triple = "x86_64-pc-linux-gnu"

%struct.Amap_Man_t_ = type { ptr, ptr, float, float, i32, i32, ptr, ptr, ptr, ptr, ptr, ptr, ptr, ptr, [7 x i32], i32, i32, i32, ptr, ptr, ptr, ptr, ptr, ptr, ptr, ptr, i32, i32, i32, i32 }
%struct.Amap_Obj_t_ = type { i64, i32, i32, i32, i32, [3 x i32], %union.anon, float, [2 x i32], %struct.Amap_Mat_t_ }
%union.anon = type { ptr }
%struct.Amap_Mat_t_ = type { ptr, ptr, float, float, float }
%struct.Vec_Ptr_t_ = type { i32, i32, ptr }
%struct.Amap_Set_t_ = type { ptr, i32, [15 x i8] }
%struct.Amap_Gat_t_ = type { ptr, ptr, ptr, ptr, double, ptr, ptr, i32, [0 x %struct.Amap_Pin_t_] }
%struct.Amap_Pin_t_ = type { ptr, i32, double, double, double, double, double, double, double }
%struct.Amap_Cut_t_ = type { i32, [0 x i32] }
%struct.Amap_Lib_t_ = type { ptr, ptr, ptr, ptr, ptr, ptr, ptr, ptr, ptr, i32, i32, i32, ptr, i32, i32, ptr, ptr, ptr, ptr, ptr, ptr, i32 }

; Function Attrs: inlinehint nounwind uwtable
define internal void @Vec_PtrGrow(ptr noundef %0, i32 noundef %1) #4 {
  %3 = alloca ptr, align 8
  %4 = alloca i32, align 4
  store ptr %0, ptr %3, align 8, !tbaa !28
  store i32 %1, ptr %4, align 4, !tbaa !10
  %5 = load ptr, ptr %3, align 8, !tbaa !28
  %6 = getelementptr inbounds nuw %struct.Vec_Ptr_t_, ptr %5, i32 0, i32 0
  %7 = load i32, ptr %6, align 8, !tbaa !106
  %8 = load i32, ptr %4, align 4, !tbaa !10
  %9 = icmp sge i32 %7, %8
  br i1 %9, label %10, label %11

10:                                               ; preds = %2
  br label %36

11:                                               ; preds = %2
  %12 = load ptr, ptr %3, align 8, !tbaa !28
  %13 = getelementptr inbounds nuw %struct.Vec_Ptr_t_, ptr %12, i32 0, i32 2
  %14 = load ptr, ptr %13, align 8, !tbaa !31
  %15 = icmp ne ptr %14, null
  br i1 %15, label %16, label %24

16:                                               ; preds = %11
  %17 = load ptr, ptr %3, align 8, !tbaa !28
  %18 = getelementptr inbounds nuw %struct.Vec_Ptr_t_, ptr %17, i32 0, i32 2
  %19 = load ptr, ptr %18, align 8, !tbaa !31
  %20 = load i32, ptr %4, align 4, !tbaa !10
  %21 = sext i32 %20 to i64
  %22 = mul i64 8, %21
  %23 = call ptr @realloc(ptr noundef %19, i64 noundef %22) #14
  br label %29

24:                                               ; preds = %11
  %25 = load i32, ptr %4, align 4, !tbaa !10
  %26 = sext i32 %25 to i64
  %27 = mul i64 8, %26
  %28 = call noalias ptr @malloc(i64 noundef %27) #15
  br label %29

29:                                               ; preds = %24, %16
  %30 = phi ptr [ %23, %16 ], [ %28, %24 ]
  %31 = load ptr, ptr %3, align 8, !tbaa !28
  %32 = getelementptr inbounds nuw %struct.Vec_Ptr_t_, ptr %31, i32 0, i32 2
  store ptr %30, ptr %32, align 8, !tbaa !31
  %33 = load i32, ptr %4, align 4, !tbaa !10
  %34 = load ptr, ptr %3, align 8, !tbaa !28
  %35 = getelementptr inbounds nuw %struct.Vec_Ptr_t_, ptr %34, i32 0, i32 0
  store i32 %33, ptr %35, align 8, !tbaa !106
  br label %36

36:                                               ; preds = %29, %10
  ret void
}

; Function Attrs: inlinehint nounwind uwtable
define internal ptr @Vec_PtrEntry(ptr noundef %0, i32 noundef %1) #4 {
  %3 = alloca ptr, align 8
  %4 = alloca i32, align 4
  store ptr %0, ptr %3, align 8, !tbaa !28
  store i32 %1, ptr %4, align 4, !tbaa !10
  %5 = load ptr, ptr %3, align 8, !tbaa !28
  %6 = getelementptr inbounds nuw %struct.Vec_Ptr_t_, ptr %5, i32 0, i32 2
  %7 = load ptr, ptr %6, align 8, !tbaa !31
  %8 = load i32, ptr %4, align 4, !tbaa !10
  %9 = sext i32 %8 to i64
  %10 = getelementptr inbounds ptr, ptr %7, i64 %9
  %11 = load ptr, ptr %10, align 8, !tbaa !32
  ret ptr %11
}

; Function Attrs: inlinehint nounwind uwtable
define internal i32 @Amap_ObjIsNode(ptr noundef %0) #4 {
  %2 = alloca ptr, align 8
  store ptr %0, ptr %2, align 8, !tbaa !25
  %3 = load ptr, ptr %2, align 8, !tbaa !25
  %4 = load i64, ptr %3, align 8
  %5 = and i64 %4, 7
  %6 = trunc i64 %5 to i32
  %7 = icmp eq i32 %6, 4
  br i1 %7, label %20, label %8

8:                                                ; preds = %1
  %9 = load ptr, ptr %2, align 8, !tbaa !25
  %10 = load i64, ptr %9, align 8
  %11 = and i64 %10, 7
  %12 = trunc i64 %11 to i32
  %13 = icmp eq i32 %12, 5
  br i1 %13, label %20, label %14

14:                                               ; preds = %8
  %15 = load ptr, ptr %2, align 8, !tbaa !25
  %16 = load i64, ptr %15, align 8
  %17 = and i64 %16, 7
  %18 = trunc i64 %17 to i32
  %19 = icmp eq i32 %18, 6
  br label %20

20:                                               ; preds = %14, %8, %1
  %21 = phi i1 [ true, %8 ], [ true, %1 ], [ %19, %14 ]
  %22 = zext i1 %21 to i32
  ret i32 %22
}

; Function Attrs: inlinehint nounwind uwtable
define internal void @Vec_PtrPush(ptr noundef %0, ptr noundef %1) #4 {
  %3 = alloca ptr, align 8
  %4 = alloca ptr, align 8
  store ptr %0, ptr %3, align 8, !tbaa !28
  store ptr %1, ptr %4, align 8, !tbaa !32
  %5 = load ptr, ptr %3, align 8, !tbaa !28
  %6 = getelementptr inbounds nuw %struct.Vec_Ptr_t_, ptr %5, i32 0, i32 1
  %7 = load i32, ptr %6, align 4, !tbaa !29
  %8 = load ptr, ptr %3, align 8, !tbaa !28
  %9 = getelementptr inbounds nuw %struct.Vec_Ptr_t_, ptr %8, i32 0, i32 0
  %10 = load i32, ptr %9, align 8, !tbaa !106
  %11 = icmp eq i32 %7, %10
  br i1 %11, label %12, label %26

12:                                               ; preds = %2
  %13 = load ptr, ptr %3, align 8, !tbaa !28
  %14 = getelementptr inbounds nuw %struct.Vec_Ptr_t_, ptr %13, i32 0, i32 0
  %15 = load i32, ptr %14, align 8, !tbaa !106
  %16 = icmp slt i32 %15, 16
  br i1 %16, label %17, label %19

17:                                               ; preds = %12
  %18 = load ptr, ptr %3, align 8, !tbaa !28
  call void @Vec_PtrGrow(ptr noundef %18, i32 noundef 16)
  br label %25

19:                                               ; preds = %12
  %20 = load ptr, ptr %3, align 8, !tbaa !28
  %21 = load ptr, ptr %3, align 8, !tbaa !28
  %22 = getelementptr inbounds nuw %struct.Vec_Ptr_t_, ptr %21, i32 0, i32 0
  %23 = load i32, ptr %22, align 8, !tbaa !106
  %24 = mul nsw i32 2, %23
  call void @Vec_PtrGrow(ptr noundef %20, i32 noundef %24)
  br label %25

25:                                               ; preds = %19, %17
  br label %26

26:                                               ; preds = %25, %2
  %27 = load ptr, ptr %4, align 8, !tbaa !32
  %28 = load ptr, ptr %3, align 8, !tbaa !28
  %29 = getelementptr inbounds nuw %struct.Vec_Ptr_t_, ptr %28, i32 0, i32 2
  %30 = load ptr, ptr %29, align 8, !tbaa !31
  %31 = load ptr, ptr %3, align 8, !tbaa !28
  %32 = getelementptr inbounds nuw %struct.Vec_Ptr_t_, ptr %31, i32 0, i32 1
  %33 = load i32, ptr %32, align 4, !tbaa !29
  %34 = add nsw i32 %33, 1
  store i32 %34, ptr %32, align 4, !tbaa !29
  %35 = sext i32 %33 to i64
  %36 = getelementptr inbounds ptr, ptr %30, i64 %35
  store ptr %27, ptr %36, align 8, !tbaa !32
  ret void
}

; Function Attrs: inlinehint nounwind uwtable
define internal i32 @Abc_LitIsCompl(i32 noundef %0) #4 {
  %2 = alloca i32, align 4
  store i32 %0, ptr %2, align 4, !tbaa !10
  %3 = load i32, ptr %2, align 4, !tbaa !10
  %4 = and i32 %3, 1
  ret i32 %4
}

; Function Attrs: inlinehint nounwind uwtable
define internal ptr @Amap_ManObj(ptr noundef %0, i32 noundef %1) #4 {
  %3 = alloca ptr, align 8
  %4 = alloca i32, align 4
  store ptr %0, ptr %3, align 8, !tbaa !3
  store i32 %1, ptr %4, align 4, !tbaa !10
  %5 = load ptr, ptr %3, align 8, !tbaa !3
  %6 = getelementptr inbounds nuw %struct.Amap_Man_t_, ptr %5, i32 0, i32 8
  %7 = load ptr, ptr %6, align 8, !tbaa !24
  %8 = load i32, ptr %4, align 4, !tbaa !10
  %9 = call ptr @Vec_PtrEntry(ptr noundef %7, i32 noundef %8)
  ret ptr %9
}

; Function Attrs: inlinehint nounwind uwtable
define internal i32 @Abc_Lit2Var(i32 noundef %0) #4 {
  %2 = alloca i32, align 4
  store i32 %0, ptr %2, align 4, !tbaa !10
  %3 = load i32, ptr %2, align 4, !tbaa !10
  %4 = ashr i32 %3, 1
  ret i32 %4
}

; Function Attrs: inlinehint nounwind uwtable
define internal ptr @Amap_LibGate(ptr noundef %0, i32 noundef %1) #4 {
  %3 = alloca ptr, align 8
  %4 = alloca i32, align 4
  store ptr %0, ptr %3, align 8, !tbaa !54
  store i32 %1, ptr %4, align 4, !tbaa !10
  %5 = load ptr, ptr %3, align 8, !tbaa !54
  %6 = getelementptr inbounds nuw %struct.Amap_Lib_t_, ptr %5, i32 0, i32 1
  %7 = load ptr, ptr %6, align 8, !tbaa !55
  %8 = load i32, ptr %4, align 4, !tbaa !10
  %9 = call ptr @Vec_PtrEntry(ptr noundef %7, i32 noundef %8)
  ret ptr %9
}

; Function Attrs: inlinehint nounwind uwtable
define internal float @Amap_CutAreaRef2(ptr noundef %0, ptr noundef %1, ptr noundef %2, i32 noundef %3) #4 {
  %5 = alloca float, align 4
  %6 = alloca ptr, align 8
  %7 = alloca ptr, align 8
  %8 = alloca ptr, align 8
  %9 = alloca i32, align 4
  %10 = alloca ptr, align 8
  %11 = alloca i32, align 4
  %12 = alloca i32, align 4
  %13 = alloca float, align 4
  %14 = alloca i32, align 4
  store ptr %0, ptr %6, align 8, !tbaa !3
  store ptr %1, ptr %7, align 8, !tbaa !42
  store ptr %2, ptr %8, align 8, !tbaa !28
  store i32 %3, ptr %9, align 4, !tbaa !10
  call void @llvm.lifetime.start.p0(i64 8, ptr %10) #12
  call void @llvm.lifetime.start.p0(i64 4, ptr %11) #12
  call void @llvm.lifetime.start.p0(i64 4, ptr %12) #12
  call void @llvm.lifetime.start.p0(i64 4, ptr %13) #12
  %15 = load ptr, ptr %6, align 8, !tbaa !3
  %16 = getelementptr inbounds nuw %struct.Amap_Man_t_, ptr %15, i32 0, i32 1
  %17 = load ptr, ptr %16, align 8, !tbaa !44
  %18 = load ptr, ptr %7, align 8, !tbaa !42
  %19 = getelementptr inbounds nuw %struct.Amap_Mat_t_, ptr %18, i32 0, i32 1
  %20 = load ptr, ptr %19, align 8, !tbaa !45
  %21 = getelementptr inbounds nuw %struct.Amap_Set_t_, ptr %20, i32 0, i32 1
  %22 = load i32, ptr %21, align 8
  %23 = and i32 %22, 65535
  %24 = call ptr @Amap_LibGate(ptr noundef %17, i32 noundef %23)
  %25 = getelementptr inbounds nuw %struct.Amap_Gat_t_, ptr %24, i32 0, i32 4
  %26 = load double, ptr %25, align 8, !tbaa !48
  %27 = fptrunc double %26 to float
  store float %27, ptr %13, align 4, !tbaa !33
  %28 = load i32, ptr %9, align 4, !tbaa !10
  %29 = icmp eq i32 %28, 0
  br i1 %29, label %30, label %32

30:                                               ; preds = %4
  %31 = load float, ptr %13, align 4, !tbaa !33
  store float %31, ptr %5, align 4
  store i32 1, ptr %14, align 4
  br label %161

32:                                               ; preds = %4
  store i32 0, ptr %11, align 4, !tbaa !10
  br label %33

33:                                               ; preds = %156, %32
  %34 = load i32, ptr %11, align 4, !tbaa !10
  %35 = load ptr, ptr %7, align 8, !tbaa !42
  %36 = getelementptr inbounds nuw %struct.Amap_Mat_t_, ptr %35, i32 0, i32 0
  %37 = load ptr, ptr %36, align 8, !tbaa !52
  %38 = load i32, ptr %37, align 4
  %39 = lshr i32 %38, 17
  %40 = icmp slt i32 %34, %39
  br i1 %40, label %41, label %92

41:                                               ; preds = %33
  %42 = load ptr, ptr %6, align 8, !tbaa !3
  %43 = load ptr, ptr %7, align 8, !tbaa !42
  %44 = getelementptr inbounds nuw %struct.Amap_Mat_t_, ptr %43, i32 0, i32 0
  %45 = load ptr, ptr %44, align 8, !tbaa !52
  %46 = getelementptr inbounds nuw %struct.Amap_Cut_t_, ptr %45, i32 0, i32 1
  %47 = load ptr, ptr %7, align 8, !tbaa !42
  %48 = getelementptr inbounds nuw %struct.Amap_Mat_t_, ptr %47, i32 0, i32 1
  %49 = load ptr, ptr %48, align 8, !tbaa !45
  %50 = getelementptr inbounds nuw %struct.Amap_Set_t_, ptr %49, i32 0, i32 2
  %51 = load i32, ptr %11, align 4, !tbaa !10
  %52 = sext i32 %51 to i64
  %53 = getelementptr inbounds [15 x i8], ptr %50, i64 0, i64 %52
  %54 = load i8, ptr %53, align 1, !tbaa !40
  %55 = sext i8 %54 to i32
  %56 = call i32 @Abc_Lit2Var(i32 noundef %55)
  %57 = sext i32 %56 to i64
  %58 = getelementptr inbounds [0 x i32], ptr %46, i64 0, i64 %57
  %59 = load i32, ptr %58, align 4, !tbaa !10
  %60 = call i32 @Abc_Lit2Var(i32 noundef %59)
  %61 = call ptr @Amap_ManObj(ptr noundef %42, i32 noundef %60)
  store ptr %61, ptr %10, align 8, !tbaa !25
  br i1 true, label %62, label %92

62:                                               ; preds = %41
  %63 = load ptr, ptr %7, align 8, !tbaa !42
  %64 = getelementptr inbounds nuw %struct.Amap_Mat_t_, ptr %63, i32 0, i32 1
  %65 = load ptr, ptr %64, align 8, !tbaa !45
  %66 = getelementptr inbounds nuw %struct.Amap_Set_t_, ptr %65, i32 0, i32 2
  %67 = load i32, ptr %11, align 4, !tbaa !10
  %68 = sext i32 %67 to i64
  %69 = getelementptr inbounds [15 x i8], ptr %66, i64 0, i64 %68
  %70 = load i8, ptr %69, align 1, !tbaa !40
  %71 = sext i8 %70 to i32
  %72 = call i32 @Abc_LitIsCompl(i32 noundef %71)
  %73 = load ptr, ptr %7, align 8, !tbaa !42
  %74 = getelementptr inbounds nuw %struct.Amap_Mat_t_, ptr %73, i32 0, i32 0
  %75 = load ptr, ptr %74, align 8, !tbaa !52
  %76 = getelementptr inbounds nuw %struct.Amap_Cut_t_, ptr %75, i32 0, i32 1
  %77 = load ptr, ptr %7, align 8, !tbaa !42
  %78 = getelementptr inbounds nuw %struct.Amap_Mat_t_, ptr %77, i32 0, i32 1
  %79 = load ptr, ptr %78, align 8, !tbaa !45
  %80 = getelementptr inbounds nuw %struct.Amap_Set_t_, ptr %79, i32 0, i32 2
  %81 = load i32, ptr %11, align 4, !tbaa !10
  %82 = sext i32 %81 to i64
  %83 = getelementptr inbounds [15 x i8], ptr %80, i64 0, i64 %82
  %84 = load i8, ptr %83, align 1, !tbaa !40
  %85 = sext i8 %84 to i32
  %86 = call i32 @Abc_Lit2Var(i32 noundef %85)
  %87 = sext i32 %86 to i64
  %88 = getelementptr inbounds [0 x i32], ptr %76, i64 0, i64 %87
  %89 = load i32, ptr %88, align 4, !tbaa !10
  %90 = call i32 @Abc_LitIsCompl(i32 noundef %89)
  %91 = xor i32 %72, %90
  store i32 %91, ptr %12, align 4, !tbaa !10
  br label %92

92:                                               ; preds = %62, %41, %33
  %93 = phi i1 [ false, %41 ], [ false, %33 ], [ true, %62 ]
  br i1 %93, label %94, label %159

94:                                               ; preds = %92
  %95 = load ptr, ptr %8, align 8, !tbaa !28
  %96 = load ptr, ptr %10, align 8, !tbaa !25
  %97 = getelementptr inbounds nuw %struct.Amap_Obj_t_, ptr %96, i32 0, i32 8
  %98 = getelementptr inbounds [2 x i32], ptr %97, i64 0, i64 0
  %99 = load i32, ptr %12, align 4, !tbaa !10
  %100 = sext i32 %99 to i64
  %101 = getelementptr inbounds i32, ptr %98, i64 %100
  call void @Vec_PtrPush(ptr noundef %95, ptr noundef %101)
  %102 = load ptr, ptr %10, align 8, !tbaa !25
  %103 = load i64, ptr %102, align 8
  %104 = lshr i64 %103, 63
  %105 = trunc i64 %104 to i32
  %106 = load i32, ptr %12, align 4, !tbaa !10
  %107 = icmp ne i32 %105, %106
  br i1 %107, label %108, label %122

108:                                              ; preds = %94
  %109 = load ptr, ptr %10, align 8, !tbaa !25
  %110 = getelementptr inbounds nuw %struct.Amap_Obj_t_, ptr %109, i32 0, i32 8
  %111 = load i32, ptr %12, align 4, !tbaa !10
  %112 = sext i32 %111 to i64
  %113 = getelementptr inbounds [2 x i32], ptr %110, i64 0, i64 %112
  %114 = load i32, ptr %113, align 4, !tbaa !10
  %115 = icmp eq i32 %114, 0
  br i1 %115, label %116, label %122

116:                                              ; preds = %108
  %117 = load ptr, ptr %6, align 8, !tbaa !3
  %118 = getelementptr inbounds nuw %struct.Amap_Man_t_, ptr %117, i32 0, i32 3
  %119 = load float, ptr %118, align 4, !tbaa !82
  %120 = load float, ptr %13, align 4, !tbaa !33
  %121 = fadd float %120, %119
  store float %121, ptr %13, align 4, !tbaa !33
  br label %122

122:                                              ; preds = %116, %108, %94
  %123 = load ptr, ptr %10, align 8, !tbaa !25
  %124 = getelementptr inbounds nuw %struct.Amap_Obj_t_, ptr %123, i32 0, i32 8
  %125 = load i32, ptr %12, align 4, !tbaa !10
  %126 = sext i32 %125 to i64
  %127 = getelementptr inbounds [2 x i32], ptr %124, i64 0, i64 %126
  %128 = load i32, ptr %127, align 4, !tbaa !10
  %129 = add nsw i32 %128, 1
  store i32 %129, ptr %127, align 4, !tbaa !10
  %130 = load ptr, ptr %10, align 8, !tbaa !25
  %131 = getelementptr inbounds nuw %struct.Amap_Obj_t_, ptr %130, i32 0, i32 8
  %132 = load i32, ptr %12, align 4, !tbaa !10
  %133 = icmp ne i32 %132, 0
  %134 = xor i1 %133, true
  %135 = zext i1 %134 to i32
  %136 = sext i32 %135 to i64
  %137 = getelementptr inbounds [2 x i32], ptr %131, i64 0, i64 %136
  %138 = load i32, ptr %137, align 4, !tbaa !10
  %139 = add nsw i32 %128, %138
  %140 = icmp eq i32 %139, 0
  br i1 %140, label %141, label %155

141:                                              ; preds = %122
  %142 = load ptr, ptr %10, align 8, !tbaa !25
  %143 = call i32 @Amap_ObjIsNode(ptr noundef %142)
  %144 = icmp ne i32 %143, 0
  br i1 %144, label %145, label %155

145:                                              ; preds = %141
  %146 = load ptr, ptr %6, align 8, !tbaa !3
  %147 = load ptr, ptr %10, align 8, !tbaa !25
  %148 = getelementptr inbounds nuw %struct.Amap_Obj_t_, ptr %147, i32 0, i32 9
  %149 = load ptr, ptr %8, align 8, !tbaa !28
  %150 = load i32, ptr %9, align 4, !tbaa !10
  %151 = sub nsw i32 %150, 1
  %152 = call float @Amap_CutAreaRef2(ptr noundef %146, ptr noundef %148, ptr noundef %149, i32 noundef %151)
  %153 = load float, ptr %13, align 4, !tbaa !33
  %154 = fadd float %153, %152
  store float %154, ptr %13, align 4, !tbaa !33
  br label %155

155:                                              ; preds = %145, %141, %122
  br label %156

156:                                              ; preds = %155
  %157 = load i32, ptr %11, align 4, !tbaa !10
  %158 = add nsw i32 %157, 1
  store i32 %158, ptr %11, align 4, !tbaa !10
  br label %33, !llvm.loop !105

159:                                              ; preds = %92
  %160 = load float, ptr %13, align 4, !tbaa !33
  store float %160, ptr %5, align 4
  store i32 1, ptr %14, align 4
  br label %161

161:                                              ; preds = %159, %30
  call void @llvm.lifetime.end.p0(i64 4, ptr %13) #12
  call void @llvm.lifetime.end.p0(i64 4, ptr %12) #12
  call void @llvm.lifetime.end.p0(i64 4, ptr %11) #12
  call void @llvm.lifetime.end.p0(i64 8, ptr %10) #12
  %162 = load float, ptr %5, align 4
  ret float %162
}