; Function Attrs: inlinehint nounwind uwtable
define internal fastcc float @Amap_CutAreaRef2(ptr noundef readonly captures(none) %0, ptr noundef readonly captures(none) %1, ptr noundef captures(none) %2, i32 noundef range(i32 0, 9) %3) unnamed_addr #11 {
  %5 = getelementptr inbounds nuw i8, ptr %0, i64 8
  %6 = load ptr, ptr %5, align 8, !tbaa !36
  %7 = getelementptr inbounds nuw i8, ptr %1, i64 8
  %8 = load ptr, ptr %7, align 8, !tbaa !37
  %9 = getelementptr inbounds nuw i8, ptr %8, i64 8
  %10 = load i32, ptr %9, align 8
  %11 = and i32 %10, 65535
  %12 = getelementptr i8, ptr %6, i64 8
  %.val41 = load ptr, ptr %12, align 8, !tbaa !38
  %13 = getelementptr i8, ptr %.val41, i64 8
  %.val41.val = load ptr, ptr %13, align 8, !tbaa !23
  %14 = zext nneg i32 %11 to i64
  %15 = getelementptr inbounds nuw ptr, ptr %.val41.val, i64 %14
  %16 = load ptr, ptr %15, align 8, !tbaa !24
  %17 = getelementptr inbounds nuw i8, ptr %16, i64 32
  %18 = load double, ptr %17, align 8, !tbaa !44
  %19 = fptrunc double %18 to float
  %20 = icmp eq i32 %3, 0
  br i1 %20, label %.critedge, label %.preheader

.preheader:                                       ; preds = %4
  %21 = load ptr, ptr %1, align 8, !tbaa !47
  %22 = load i32, ptr %21, align 4
  %.not46 = icmp ult i32 %22, 131072
  br i1 %.not46, label %.critedge, label %.lr.ph

.lr.ph:                                           ; preds = %.preheader
  %23 = getelementptr i8, ptr %0, i64 48
  %24 = getelementptr inbounds nuw i8, ptr %2, i64 4
  %.phi.trans.insert.i = getelementptr inbounds nuw i8, ptr %2, i64 8
  %25 = getelementptr inbounds nuw i8, ptr %0, i64 20
  %26 = add nsw i32 %3, -1
  br label %27

27:                                               ; preds = %.lr.ph, %101
  %indvars.iv = phi i64 [ 0, %.lr.ph ], [ %indvars.iv.next, %101 ]
  %28 = phi ptr [ %21, %.lr.ph ], [ %102, %101 ]
  %.045 = phi float [ %19, %.lr.ph ], [ %.2, %101 ]
  %29 = getelementptr inbounds nuw i8, ptr %28, i64 4
  %30 = load ptr, ptr %7, align 8, !tbaa !37
  %31 = getelementptr inbounds nuw i8, ptr %30, i64 12
  %32 = getelementptr inbounds nuw [15 x i8], ptr %31, i64 0, i64 %indvars.iv
  %33 = load i8, ptr %32, align 1, !tbaa !34
  %34 = sext i8 %33 to i32
  %35 = ashr i32 %34, 1
  %36 = sext i32 %35 to i64
  %37 = getelementptr inbounds [0 x i32], ptr %29, i64 0, i64 %36
  %38 = load i32, ptr %37, align 4, !tbaa !25
  %39 = ashr i32 %38, 1
  %.val = load ptr, ptr %23, align 8, !tbaa !20
  %40 = getelementptr i8, ptr %.val, i64 8
  %.val.val = load ptr, ptr %40, align 8, !tbaa !23
  %41 = sext i32 %39 to i64
  %42 = getelementptr inbounds ptr, ptr %.val.val, i64 %41
  %43 = load ptr, ptr %42, align 8, !tbaa !24
  %44 = and i32 %34, 1
  %45 = and i32 %38, 1
  %46 = xor i32 %44, %45
  %47 = getelementptr inbounds nuw i8, ptr %43, i64 52
  %48 = zext nneg i32 %46 to i64
  %49 = getelementptr inbounds nuw i32, ptr %47, i64 %48
  %50 = load i32, ptr %24, align 4, !tbaa !21
  %51 = load i32, ptr %2, align 8, !tbaa !91
  %52 = icmp eq i32 %50, %51
  br i1 %52, label %53, label %.Vec_PtrGrow.exit11_crit_edge.i

.Vec_PtrGrow.exit11_crit_edge.i:                  ; preds = %27
  %.pre.i = load ptr, ptr %.phi.trans.insert.i, align 8, !tbaa !23
  br label %Vec_PtrPush.exit

53:                                               ; preds = %27
  %54 = icmp slt i32 %50, 16
  br i1 %54, label %55, label %62

55:                                               ; preds = %53
  %56 = load ptr, ptr %.phi.trans.insert.i, align 8, !tbaa !23
  %.not9.i.i = icmp eq ptr %56, null
  br i1 %.not9.i.i, label %59, label %57

57:                                               ; preds = %55
  %58 = tail call dereferenceable_or_null(128) ptr @realloc(ptr noundef nonnull %56, i64 noundef 128) #21
  br label %Vec_PtrGrow.exit.i

59:                                               ; preds = %55
  %60 = tail call noalias dereferenceable_or_null(128) ptr @malloc(i64 noundef 128) #22
  br label %Vec_PtrGrow.exit.i

Vec_PtrGrow.exit.i:                               ; preds = %59, %57
  %61 = phi ptr [ %58, %57 ], [ %60, %59 ]
  store ptr %61, ptr %.phi.trans.insert.i, align 8, !tbaa !23
  store i32 16, ptr %2, align 8, !tbaa !91
  br label %Vec_PtrPush.exit

62:                                               ; preds = %53
  %63 = shl nuw nsw i32 %50, 1
  %64 = load ptr, ptr %.phi.trans.insert.i, align 8, !tbaa !23
  %.not9.i10.i = icmp eq ptr %64, null
  %65 = zext nneg i32 %63 to i64
  %66 = shl nuw nsw i64 %65, 3
  br i1 %.not9.i10.i, label %69, label %67

67:                                               ; preds = %62
  %68 = tail call ptr @realloc(ptr noundef nonnull %64, i64 noundef %66) #21
  br label %71

69:                                               ; preds = %62
  %70 = tail call noalias ptr @malloc(i64 noundef %66) #22
  br label %71

71:                                               ; preds = %69, %67
  %72 = phi ptr [ %68, %67 ], [ %70, %69 ]
  store ptr %72, ptr %.phi.trans.insert.i, align 8, !tbaa !23
  store i32 %63, ptr %2, align 8, !tbaa !91
  br label %Vec_PtrPush.exit

Vec_PtrPush.exit:                                 ; preds = %.Vec_PtrGrow.exit11_crit_edge.i, %Vec_PtrGrow.exit.i, %71
  %73 = phi ptr [ %.pre.i, %.Vec_PtrGrow.exit11_crit_edge.i ], [ %72, %71 ], [ %61, %Vec_PtrGrow.exit.i ]
  %74 = load i32, ptr %24, align 4, !tbaa !21
  %75 = add nsw i32 %74, 1
  store i32 %75, ptr %24, align 4, !tbaa !21
  %76 = sext i32 %74 to i64
  %77 = getelementptr inbounds ptr, ptr %73, i64 %76
  store ptr %49, ptr %77, align 8, !tbaa !24
  %78 = load i64, ptr %43, align 8
  %79 = lshr i64 %78, 63
  %80 = trunc nuw nsw i64 %79 to i32
  %.not = icmp ne i32 %46, %80
  %.pre = load i32, ptr %49, align 4, !tbaa !25
  %81 = icmp eq i32 %.pre, 0
  %or.cond = select i1 %.not, i1 %81, i1 false
  br i1 %or.cond, label %82, label %85

82:                                               ; preds = %Vec_PtrPush.exit
  %83 = load float, ptr %25, align 4, !tbaa !63
  %84 = fadd float %.045, %83
  br label %85

85:                                               ; preds = %82, %Vec_PtrPush.exit
  %.1 = phi float [ %84, %82 ], [ %.045, %Vec_PtrPush.exit ]
  %86 = add nsw i32 %.pre, 1
  store i32 %86, ptr %49, align 4, !tbaa !25
  %.not39 = icmp eq i32 %44, %45
  %87 = zext i1 %.not39 to i64
  %88 = getelementptr inbounds nuw [2 x i32], ptr %47, i64 0, i64 %87
  %89 = load i32, ptr %88, align 4, !tbaa !25
  %90 = sub i32 0, %89
  %91 = icmp eq i32 %.pre, %90
  br i1 %91, label %92, label %101

92:                                               ; preds = %85
  %93 = trunc i64 %78 to i32
  %94 = and i32 %93, 7
  %95 = and i32 %93, 6
  %switch.i = icmp ne i32 %95, 4
  %96 = icmp ne i32 %94, 6
  %narrow.i.not = and i1 %switch.i, %96
  br i1 %narrow.i.not, label %101, label %97

97:                                               ; preds = %92
  %98 = getelementptr inbounds nuw i8, ptr %43, i64 64
  %99 = tail call fastcc float @Amap_CutAreaRef2(ptr noundef nonnull %0, ptr noundef nonnull %98, ptr noundef nonnull %2, i32 noundef %26)
  %100 = fadd float %.1, %99
  br label %101

101:                                              ; preds = %85, %92, %97
  %.2 = phi float [ %100, %97 ], [ %.1, %92 ], [ %.1, %85 ]
  %indvars.iv.next = add nuw nsw i64 %indvars.iv, 1
  %102 = load ptr, ptr %1, align 8, !tbaa !47
  %103 = load i32, ptr %102, align 4
  %104 = lshr i32 %103, 17
  %105 = zext nneg i32 %104 to i64
  %106 = icmp samesign ult i64 %indvars.iv.next, %105
  br i1 %106, label %27, label %.critedge, !llvm.loop !92

.critedge:                                        ; preds = %101, %.preheader, %4
  %.036 = phi float [ %19, %4 ], [ %19, %.preheader ], [ %.2, %101 ]
  ret float %.036
}